; Function Attrs: null_pointer_is_valid sspstrong uwtable
define internal ptr @dissect_chap_password(ptr noundef %0, ptr noundef %1, ptr noundef readonly captures(none) %2) #0 {
  %4 = tail call i32 @tvb_reported_length(ptr noundef %1)
  %.not = icmp eq i32 %4, 17
  br i1 %.not, label %5, label %17

5:                                                ; preds = %3
  %6 = load i32, ptr @hf_radius_chap_password, align 4
  %7 = tail call ptr @proto_tree_add_item(ptr noundef %0, i32 noundef %6, ptr noundef %1, i32 noundef 0, i32 noundef 17, i32 noundef 0)
  %8 = load i32, ptr @ett_chap, align 4
  %9 = tail call ptr @proto_item_add_subtree(ptr noundef %7, i32 noundef %8)
  %10 = load i32, ptr @hf_radius_chap_ident, align 4
  %11 = tail call ptr @proto_tree_add_item(ptr noundef %9, i32 noundef %10, ptr noundef %1, i32 noundef 0, i32 noundef 1, i32 noundef 0)
  %12 = load i32, ptr @hf_radius_chap_string, align 4
  %13 = tail call ptr @proto_tree_add_item(ptr noundef %9, i32 noundef %12, ptr noundef %1, i32 noundef 1, i32 noundef 16, i32 noundef 0)
  %14 = getelementptr inbounds nuw i8, ptr %2, i64 408
  %15 = load ptr, ptr %14, align 8
  %16 = tail call ptr @tvb_bytes_to_str(ptr noundef %15, ptr noundef %1, i32 noundef 0, i32 noundef 17)
  br label %17

17:                                               ; preds = %3, %5
  %.0 = phi ptr [ %16, %5 ], [ @.str.302, %3 ]
  ret ptr %.0
}